target datalayout = "e-m:e-p270:32:32-p271:32:32-p272:64:64-i64:64-i128:128-f80:128-n8:16:32:64-S128"
target triple = "x86_64-pc-linux-gnu"

%struct.SpecialJoinInfo = type { i32, ptr, ptr, ptr, ptr, i32, i32, ptr, ptr, ptr, ptr, i8, i8, i8, ptr, ptr }

; Function Attrs: nounwind uwtable
define internal void @free_child_join_sjinfo(ptr noundef %0) #0 {
  %2 = alloca ptr, align 8
  store ptr %0, ptr %2, align 8
  %3 = load ptr, ptr %2, align 8
  %4 = getelementptr inbounds nuw %struct.SpecialJoinInfo, ptr %3, i32 0, i32 5
  %5 = load i32, ptr %4, align 8
  %6 = icmp ne i32 %5, 0
  br i1 %6, label %7, label %20

7:                                                ; preds = %1
  %8 = load ptr, ptr %2, align 8
  %9 = getelementptr inbounds nuw %struct.SpecialJoinInfo, ptr %8, i32 0, i32 1
  %10 = load ptr, ptr %9, align 8
  call void @bms_free(ptr noundef %10)
  %11 = load ptr, ptr %2, align 8
  %12 = getelementptr inbounds nuw %struct.SpecialJoinInfo, ptr %11, i32 0, i32 2
  %13 = load ptr, ptr %12, align 8
  call void @bms_free(ptr noundef %13)
  %14 = load ptr, ptr %2, align 8
  %15 = getelementptr inbounds nuw %struct.SpecialJoinInfo, ptr %14, i32 0, i32 3
  %16 = load ptr, ptr %15, align 8
  call void @bms_free(ptr noundef %16)
  %17 = load ptr, ptr %2, align 8
  %18 = getelementptr inbounds nuw %struct.SpecialJoinInfo, ptr %17, i32 0, i32 4
  %19 = load ptr, ptr %18, align 8
  call void @bms_free(ptr noundef %19)
  br label %20

20:                                               ; preds = %7, %1
  %21 = load ptr, ptr %2, align 8
  call void @pfree(ptr noundef %21)
  ret void
}