; Function Attrs: nounwind uwtable
define internal fastcc void @free_child_join_sjinfo(ptr noundef %0) unnamed_addr #0 {
  %2 = getelementptr inbounds nuw i8, ptr %0, i64 40
  %3 = load i32, ptr %2, align 8
  %.not = icmp eq i32 %3, 0
  br i1 %.not, label %13, label %4

4:                                                ; preds = %1
  %5 = getelementptr inbounds nuw i8, ptr %0, i64 8
  %6 = load ptr, ptr %5, align 8
  tail call void @bms_free(ptr noundef %6) #9
  %7 = getelementptr inbounds nuw i8, ptr %0, i64 16
  %8 = load ptr, ptr %7, align 8
  tail call void @bms_free(ptr noundef %8) #9
  %9 = getelementptr inbounds nuw i8, ptr %0, i64 24
  %10 = load ptr, ptr %9, align 8
  tail call void @bms_free(ptr noundef %10) #9
  %11 = getelementptr inbounds nuw i8, ptr %0, i64 32
  %12 = load ptr, ptr %11, align 8
  tail call void @bms_free(ptr noundef %12) #9
  br label %13

13:                                               ; preds = %4, %1
  tail call void @pfree(ptr noundef nonnull %0) #9
  ret void
}